; Function Attrs: null_pointer_is_valid sspstrong uwtable
define internal i32 @dissect_h225_T_oid(ptr noundef %0, i32 noundef %1, ptr noundef %2, ptr noundef %3, i32 noundef %4) #0 {
  %6 = alloca ptr, align 8
  call void @llvm.lifetime.start.p0(i64 8, ptr nonnull %6) #11
  store ptr null, ptr %6, align 8
  %7 = call i32 @dissect_per_object_identifier_str(ptr noundef %0, i32 noundef %1, ptr noundef %2, ptr noundef %3, i32 noundef %4, ptr noundef nonnull %6)
  %8 = getelementptr inbounds nuw i8, ptr %2, i64 48
  %9 = load ptr, ptr %8, align 8
  %10 = call ptr @gef_ctx_get(ptr noundef %9)
  %.not = icmp eq ptr %10, null
  br i1 %.not, label %14, label %11

11:                                               ; preds = %5
  %12 = load ptr, ptr %6, align 8
  %13 = getelementptr inbounds nuw i8, ptr %10, i64 24
  store ptr %12, ptr %13, align 8
  br label %14

14:                                               ; preds = %11, %5
  call void @llvm.lifetime.end.p0(i64 8, ptr nonnull %6) #11
  ret i32 %7
}